target datalayout = "e-m:e-p270:32:32-p271:32:32-p272:64:64-i64:64-i128:128-f80:128-n8:16:32:64-S128"
target triple = "x86_64-pc-linux-gnu"

; Function Attrs: nounwind uwtable
define i64 @encoded_size(ptr noundef %0) #0 {
  %2 = alloca ptr, align 8
  %3 = alloca ptr, align 8
  %4 = alloca i64, align 8
  store ptr %0, ptr %2, align 8, !tbaa !3
  call void @llvm.lifetime.start.p0(i64 8, ptr %3) #8
  call void @llvm.lifetime.start.p0(i64 8, ptr %4) #8
  store i64 0, ptr %4, align 8, !tbaa !21
  %5 = load ptr, ptr %2, align 8, !tbaa !3
  store ptr %5, ptr %3, align 8, !tbaa !3
  br label %6

6:                                                ; preds = %27, %1
  %7 = load ptr, ptr %3, align 8, !tbaa !3
  %8 = load i8, ptr %7, align 1, !tbaa !18
  %9 = sext i8 %8 to i32
  %10 = icmp ne i32 %9, 0
  br i1 %10, label %11, label %30

11:                                               ; preds = %6
  %12 = call ptr @__ctype_b_loc() #9
  %13 = load ptr, ptr %12, align 8, !tbaa !27
  %14 = load ptr, ptr %3, align 8, !tbaa !3
  %15 = load i8, ptr %14, align 1, !tbaa !18
  %16 = sext i8 %15 to i32
  %17 = sext i32 %16 to i64
  %18 = getelementptr inbounds i16, ptr %13, i64 %17
  %19 = load i16, ptr %18, align 2, !tbaa !29
  %20 = zext i16 %19 to i32
  %21 = and i32 %20, 8
  %22 = icmp ne i32 %21, 0
  %23 = select i1 %22, i32 1, i32 3
  %24 = sext i32 %23 to i64
  %25 = load i64, ptr %4, align 8, !tbaa !21
  %26 = add i64 %25, %24
  store i64 %26, ptr %4, align 8, !tbaa !21
  br label %27

27:                                               ; preds = %11
  %28 = load ptr, ptr %3, align 8, !tbaa !3
  %29 = getelementptr inbounds nuw i8, ptr %28, i32 1
  store ptr %29, ptr %3, align 8, !tbaa !3
  br label %6

30:                                               ; preds = %6
  %31 = load i64, ptr %4, align 8, !tbaa !21
  call void @llvm.lifetime.end.p0(i64 8, ptr %4) #8
  call void @llvm.lifetime.end.p0(i64 8, ptr %3) #8
  ret i64 %31
}