; Function Attrs: nofree nosync nounwind memory(read, inaccessiblemem: none) uwtable
define i64 @encoded_size(ptr noundef readonly captures(none) %0) local_unnamed_addr #6 {
  %2 = load i8, ptr %0, align 1, !tbaa !23
  %.not8 = icmp eq i8 %2, 0
  br i1 %.not8, label %._crit_edge, label %.lr.ph

.lr.ph:                                           ; preds = %1
  %3 = tail call ptr @__ctype_b_loc() #11
  %4 = load ptr, ptr %3, align 8, !tbaa !24
  br label %5

5:                                                ; preds = %.lr.ph, %5
  %6 = phi i8 [ %2, %.lr.ph ], [ %14, %5 ]
  %.010 = phi i64 [ 0, %.lr.ph ], [ %12, %5 ]
  %.059 = phi ptr [ %0, %.lr.ph ], [ %13, %5 ]
  %7 = sext i8 %6 to i64
  %8 = getelementptr inbounds i16, ptr %4, i64 %7
  %9 = load i16, ptr %8, align 2, !tbaa !26
  %10 = and i16 %9, 8
  %.not7 = icmp eq i16 %10, 0
  %11 = select i1 %.not7, i64 3, i64 1
  %12 = add i64 %11, %.010
  %13 = getelementptr inbounds nuw i8, ptr %.059, i64 1
  %14 = load i8, ptr %13, align 1, !tbaa !23
  %.not = icmp eq i8 %14, 0
  br i1 %.not, label %._crit_edge, label %5

._crit_edge:                                      ; preds = %5, %1
  %.0.lcssa = phi i64 [ 0, %1 ], [ %12, %5 ]
  ret i64 %.0.lcssa
}